target datalayout = "e-m:e-p270:32:32-p271:32:32-p272:64:64-i64:64-i128:128-f80:128-n8:16:32:64-S128"
target triple = "x86_64-pc-linux-gnu"

%struct.IndexScanState = type { %struct.ScanState, ptr, ptr, ptr, i32, ptr, i32, ptr, i32, i8, ptr, ptr, ptr, ptr, i8, ptr, ptr, ptr, ptr, ptr, i64 }
%struct.ScanState = type { %struct.PlanState, ptr, ptr, ptr }
%struct.PlanState = type { i32, ptr, ptr, ptr, ptr, ptr, ptr, ptr, ptr, ptr, ptr, ptr, ptr, ptr, ptr, ptr, ptr, ptr, i8, ptr, ptr, ptr, ptr, ptr, i8, i8, i8, i8, i8, i8, i8, i8 }
%struct.ReorderTuple = type { %struct.pairingheap_node, ptr, ptr, ptr }
%struct.pairingheap_node = type { ptr, ptr, ptr }
%struct.SortSupportData = type { ptr, i32, i8, i8, i16, ptr, ptr, i8, ptr, ptr, ptr }

; Function Attrs: nounwind uwtable
define internal i32 @cmp_orderbyvals(ptr noundef %0, ptr noundef %1, ptr noundef %2, ptr noundef %3, ptr noundef %4) #0 {
  %6 = alloca i32, align 4
  %7 = alloca ptr, align 8
  %8 = alloca ptr, align 8
  %9 = alloca ptr, align 8
  %10 = alloca ptr, align 8
  %11 = alloca ptr, align 8
  %12 = alloca i32, align 4
  %13 = alloca i32, align 4
  %14 = alloca ptr, align 8
  %15 = alloca i32, align 4
  store ptr %0, ptr %7, align 8
  store ptr %1, ptr %8, align 8
  store ptr %2, ptr %9, align 8
  store ptr %3, ptr %10, align 8
  store ptr %4, ptr %11, align 8
  call void @llvm.lifetime.start.p0(i64 4, ptr %12) #7
  call void @llvm.lifetime.start.p0(i64 4, ptr %13) #7
  store i32 0, ptr %12, align 4
  br label %16

16:                                               ; preds = %99, %5
  %17 = load i32, ptr %12, align 4
  %18 = load ptr, ptr %11, align 8
  %19 = getelementptr inbounds nuw %struct.IndexScanState, ptr %18, i32 0, i32 6
  %20 = load i32, ptr %19, align 8
  %21 = icmp slt i32 %17, %20
  br i1 %21, label %22, label %102

22:                                               ; preds = %16
  call void @llvm.lifetime.start.p0(i64 8, ptr %14) #7
  %23 = load ptr, ptr %11, align 8
  %24 = getelementptr inbounds nuw %struct.IndexScanState, ptr %23, i32 0, i32 17
  %25 = load ptr, ptr %24, align 8
  %26 = load i32, ptr %12, align 4
  %27 = sext i32 %26 to i64
  %28 = getelementptr inbounds %struct.SortSupportData, ptr %25, i64 %27
  store ptr %28, ptr %14, align 8
  %29 = load ptr, ptr %8, align 8
  %30 = load i32, ptr %12, align 4
  %31 = sext i32 %30 to i64
  %32 = getelementptr inbounds i8, ptr %29, i64 %31
  %33 = load i8, ptr %32, align 1, !range !6, !noundef !7
  %34 = trunc i8 %33 to i1
  br i1 %34, label %35, label %43

35:                                               ; preds = %22
  %36 = load ptr, ptr %10, align 8
  %37 = load i32, ptr %12, align 4
  %38 = sext i32 %37 to i64
  %39 = getelementptr inbounds i8, ptr %36, i64 %38
  %40 = load i8, ptr %39, align 1, !range !6, !noundef !7
  %41 = trunc i8 %40 to i1
  br i1 %41, label %43, label %42

42:                                               ; preds = %35
  store i32 1, ptr %6, align 4
  store i32 1, ptr %15, align 4
  br label %96

43:                                               ; preds = %35, %22
  %44 = load ptr, ptr %8, align 8
  %45 = load i32, ptr %12, align 4
  %46 = sext i32 %45 to i64
  %47 = getelementptr inbounds i8, ptr %44, i64 %46
  %48 = load i8, ptr %47, align 1, !range !6, !noundef !7
  %49 = trunc i8 %48 to i1
  br i1 %49, label %58, label %50

50:                                               ; preds = %43
  %51 = load ptr, ptr %10, align 8
  %52 = load i32, ptr %12, align 4
  %53 = sext i32 %52 to i64
  %54 = getelementptr inbounds i8, ptr %51, i64 %53
  %55 = load i8, ptr %54, align 1, !range !6, !noundef !7
  %56 = trunc i8 %55 to i1
  br i1 %56, label %57, label %58

57:                                               ; preds = %50
  store i32 -1, ptr %6, align 4
  store i32 1, ptr %15, align 4
  br label %96

58:                                               ; preds = %50, %43
  %59 = load ptr, ptr %8, align 8
  %60 = load i32, ptr %12, align 4
  %61 = sext i32 %60 to i64
  %62 = getelementptr inbounds i8, ptr %59, i64 %61
  %63 = load i8, ptr %62, align 1, !range !6, !noundef !7
  %64 = trunc i8 %63 to i1
  br i1 %64, label %65, label %73

65:                                               ; preds = %58
  %66 = load ptr, ptr %10, align 8
  %67 = load i32, ptr %12, align 4
  %68 = sext i32 %67 to i64
  %69 = getelementptr inbounds i8, ptr %66, i64 %68
  %70 = load i8, ptr %69, align 1, !range !6, !noundef !7
  %71 = trunc i8 %70 to i1
  br i1 %71, label %72, label %73

72:                                               ; preds = %65
  store i32 0, ptr %6, align 4
  store i32 1, ptr %15, align 4
  br label %96

73:                                               ; preds = %65, %58
  br label %74

74:                                               ; preds = %73
  br label %75

75:                                               ; preds = %74
  %76 = load ptr, ptr %14, align 8
  %77 = getelementptr inbounds nuw %struct.SortSupportData, ptr %76, i32 0, i32 6
  %78 = load ptr, ptr %77, align 8
  %79 = load ptr, ptr %7, align 8
  %80 = load i32, ptr %12, align 4
  %81 = sext i32 %80 to i64
  %82 = getelementptr inbounds i64, ptr %79, i64 %81
  %83 = load i64, ptr %82, align 8
  %84 = load ptr, ptr %9, align 8
  %85 = load i32, ptr %12, align 4
  %86 = sext i32 %85 to i64
  %87 = getelementptr inbounds i64, ptr %84, i64 %86
  %88 = load i64, ptr %87, align 8
  %89 = load ptr, ptr %14, align 8
  %90 = call i32 %78(i64 noundef %83, i64 noundef %88, ptr noundef %89)
  store i32 %90, ptr %13, align 4
  %91 = load i32, ptr %13, align 4
  %92 = icmp ne i32 %91, 0
  br i1 %92, label %93, label %95

93:                                               ; preds = %75
  %94 = load i32, ptr %13, align 4
  store i32 %94, ptr %6, align 4
  store i32 1, ptr %15, align 4
  br label %96

95:                                               ; preds = %75
  store i32 0, ptr %15, align 4
  br label %96

96:                                               ; preds = %95, %93, %72, %57, %42
  call void @llvm.lifetime.end.p0(i64 8, ptr %14) #7
  %97 = load i32, ptr %15, align 4
  switch i32 %97, label %103 [
    i32 0, label %98
  ]

98:                                               ; preds = %96
  br label %99

99:                                               ; preds = %98
  %100 = load i32, ptr %12, align 4
  %101 = add i32 %100, 1
  store i32 %101, ptr %12, align 4
  br label %16, !llvm.loop !17

102:                                              ; preds = %16
  store i32 0, ptr %6, align 4
  store i32 1, ptr %15, align 4
  br label %103

103:                                              ; preds = %102, %96
  call void @llvm.lifetime.end.p0(i64 4, ptr %13) #7
  call void @llvm.lifetime.end.p0(i64 4, ptr %12) #7
  %104 = load i32, ptr %6, align 4
  ret i32 %104
}

; Function Attrs: nounwind uwtable
define internal i32 @reorderqueue_cmp(ptr noundef %0, ptr noundef %1, ptr noundef %2) #0 {
  %4 = alloca ptr, align 8
  %5 = alloca ptr, align 8
  %6 = alloca ptr, align 8
  %7 = alloca ptr, align 8
  %8 = alloca ptr, align 8
  %9 = alloca ptr, align 8
  store ptr %0, ptr %4, align 8
  store ptr %1, ptr %5, align 8
  store ptr %2, ptr %6, align 8
  call void @llvm.lifetime.start.p0(i64 8, ptr %7) #7
  %10 = load ptr, ptr %4, align 8
  store ptr %10, ptr %7, align 8
  call void @llvm.lifetime.start.p0(i64 8, ptr %8) #7
  %11 = load ptr, ptr %5, align 8
  store ptr %11, ptr %8, align 8
  call void @llvm.lifetime.start.p0(i64 8, ptr %9) #7
  %12 = load ptr, ptr %6, align 8
  store ptr %12, ptr %9, align 8
  %13 = load ptr, ptr %8, align 8
  %14 = getelementptr inbounds nuw %struct.ReorderTuple, ptr %13, i32 0, i32 2
  %15 = load ptr, ptr %14, align 8
  %16 = load ptr, ptr %8, align 8
  %17 = getelementptr inbounds nuw %struct.ReorderTuple, ptr %16, i32 0, i32 3
  %18 = load ptr, ptr %17, align 8
  %19 = load ptr, ptr %7, align 8
  %20 = getelementptr inbounds nuw %struct.ReorderTuple, ptr %19, i32 0, i32 2
  %21 = load ptr, ptr %20, align 8
  %22 = load ptr, ptr %7, align 8
  %23 = getelementptr inbounds nuw %struct.ReorderTuple, ptr %22, i32 0, i32 3
  %24 = load ptr, ptr %23, align 8
  %25 = load ptr, ptr %9, align 8
  %26 = call i32 @cmp_orderbyvals(ptr noundef %15, ptr noundef %18, ptr noundef %21, ptr noundef %24, ptr noundef %25)
  call void @llvm.lifetime.end.p0(i64 8, ptr %9) #7
  call void @llvm.lifetime.end.p0(i64 8, ptr %8) #7
  call void @llvm.lifetime.end.p0(i64 8, ptr %7) #7
  ret i32 %26
}