; Function Attrs: nounwind uwtable
define internal i32 @reorderqueue_cmp(ptr noundef readonly captures(none) %0, ptr noundef readonly captures(none) %1, ptr noundef readonly captures(none) %2) #0 {
  %4 = getelementptr inbounds nuw i8, ptr %1, i64 32
  %5 = load ptr, ptr %4, align 8
  %6 = getelementptr inbounds nuw i8, ptr %1, i64 40
  %7 = load ptr, ptr %6, align 8
  %8 = getelementptr inbounds nuw i8, ptr %0, i64 32
  %9 = load ptr, ptr %8, align 8
  %10 = getelementptr inbounds nuw i8, ptr %0, i64 40
  %11 = load ptr, ptr %10, align 8
  %12 = getelementptr inbounds nuw i8, ptr %2, i64 264
  %13 = load i32, ptr %12, align 8
  %14 = icmp sgt i32 %13, 0
  br i1 %14, label %.lr.ph.i, label %cmp_orderbyvals.exit

.lr.ph.i:                                         ; preds = %3
  %15 = getelementptr inbounds nuw i8, ptr %2, i64 344
  br label %20

16:                                               ; preds = %32
  %indvars.iv.next.i = add nuw nsw i64 %indvars.iv.i, 1
  %17 = load i32, ptr %12, align 8
  %18 = sext i32 %17 to i64
  %19 = icmp slt i64 %indvars.iv.next.i, %18
  br i1 %19, label %20, label %cmp_orderbyvals.exit, !llvm.loop !13

20:                                               ; preds = %16, %.lr.ph.i
  %indvars.iv.i = phi i64 [ 0, %.lr.ph.i ], [ %indvars.iv.next.i, %16 ]
  %21 = load ptr, ptr %15, align 8
  %22 = getelementptr inbounds nuw %struct.SortSupportData, ptr %21, i64 %indvars.iv.i
  %23 = getelementptr inbounds nuw i8, ptr %7, i64 %indvars.iv.i
  %24 = load i8, ptr %23, align 1, !range !4, !noundef !5
  %25 = trunc nuw i8 %24 to i1
  %26 = getelementptr inbounds nuw i8, ptr %11, i64 %indvars.iv.i
  %27 = load i8, ptr %26, align 1, !range !4, !noundef !5
  br i1 %25, label %28, label %30

28:                                               ; preds = %20
  %29 = xor i8 %27, 1
  %not..i = zext nneg i8 %29 to i32
  br label %cmp_orderbyvals.exit

30:                                               ; preds = %20
  %31 = trunc nuw i8 %27 to i1
  br i1 %31, label %cmp_orderbyvals.exit, label %32

32:                                               ; preds = %30
  %33 = getelementptr inbounds nuw i8, ptr %22, i64 24
  %34 = load ptr, ptr %33, align 8
  %35 = getelementptr inbounds nuw i64, ptr %5, i64 %indvars.iv.i
  %36 = load i64, ptr %35, align 8
  %37 = getelementptr inbounds nuw i64, ptr %9, i64 %indvars.iv.i
  %38 = load i64, ptr %37, align 8
  %39 = tail call i32 %34(i64 noundef %36, i64 noundef %38, ptr noundef %22) #7
  %.not.i = icmp eq i32 %39, 0
  br i1 %.not.i, label %16, label %cmp_orderbyvals.exit

cmp_orderbyvals.exit:                             ; preds = %16, %30, %32, %3, %28
  %.2.i = phi i32 [ 0, %3 ], [ %not..i, %28 ], [ %39, %32 ], [ 0, %16 ], [ -1, %30 ]
  ret i32 %.2.i
}